; Function Attrs: nounwind uwtable
define internal fastcc noundef zeroext i1 @malloc_init_hard_a0() unnamed_addr #2 {
  %1 = tail call i32 @pthread_mutex_trylock(ptr noundef nonnull getelementptr inbounds nuw (i8, ptr @init_lock, i64 72)) #21
  %.not.i = icmp eq i32 %1, 0
  br i1 %.not.i, label %2, label %atomic_store_b.exit.i

atomic_store_b.exit.i:                            ; preds = %0
  tail call void @duckdb_je_malloc_mutex_lock_slow(ptr noundef nonnull @init_lock) #21
  store atomic i8 1, ptr getelementptr inbounds nuw (i8, ptr @init_lock, i64 64) monotonic, align 8
  br label %2

2:                                                ; preds = %atomic_store_b.exit.i, %0
  %3 = load i64, ptr getelementptr inbounds nuw (i8, ptr @init_lock, i64 56), align 8, !tbaa !40
  %4 = add i64 %3, 1
  store i64 %4, ptr getelementptr inbounds nuw (i8, ptr @init_lock, i64 56), align 8, !tbaa !40
  %5 = load ptr, ptr getelementptr inbounds nuw (i8, ptr @init_lock, i64 48), align 8, !tbaa !45
  %.not.i.i = icmp eq ptr %5, null
  br i1 %.not.i.i, label %malloc_mutex_lock.exit, label %6

6:                                                ; preds = %2
  store ptr null, ptr getelementptr inbounds nuw (i8, ptr @init_lock, i64 48), align 8, !tbaa !45
  %7 = load i64, ptr getelementptr inbounds nuw (i8, ptr @init_lock, i64 40), align 8, !tbaa !46
  %8 = add i64 %7, 1
  store i64 %8, ptr getelementptr inbounds nuw (i8, ptr @init_lock, i64 40), align 8, !tbaa !46
  br label %malloc_mutex_lock.exit

malloc_mutex_lock.exit:                           ; preds = %2, %6
  %9 = tail call fastcc zeroext i1 @malloc_init_hard_a0_locked()
  store atomic i8 0, ptr getelementptr inbounds nuw (i8, ptr @init_lock, i64 64) monotonic, align 8
  %10 = tail call i32 @pthread_mutex_unlock(ptr noundef nonnull getelementptr inbounds nuw (i8, ptr @init_lock, i64 72)) #21
  ret i1 %9
}